target datalayout = "e-m:e-p270:32:32-p271:32:32-p272:64:64-i64:64-i128:128-f80:128-n8:16:32:64-S128"
target triple = "x86_64-pc-linux-gnu"

; Function Attrs: mustprogress uwtable
define noundef i32 @_Z18DetectTextEncodingPKhm(ptr noundef %0, i64 noundef %1) #0 {
  %3 = alloca i32, align 4
  %4 = alloca ptr, align 8
  %5 = alloca i64, align 8
  %6 = alloca i8, align 1
  %7 = alloca i8, align 1
  %8 = alloca i64, align 8
  store ptr %0, ptr %4, align 8
  store i64 %1, ptr %5, align 8
  %9 = load i64, ptr %5, align 8
  %10 = icmp ugt i64 %9, 3
  br i1 %10, label %11, label %36

11:                                               ; preds = %2
  %12 = load ptr, ptr %4, align 8
  %13 = getelementptr inbounds i8, ptr %12, i64 0
  %14 = load i8, ptr %13, align 1
  %15 = zext i8 %14 to i32
  %16 = icmp eq i32 %15, 239
  br i1 %16, label %17, label %36

17:                                               ; preds = %11
  %18 = load ptr, ptr %4, align 8
  %19 = getelementptr inbounds i8, ptr %18, i64 1
  %20 = load i8, ptr %19, align 1
  %21 = zext i8 %20 to i32
  %22 = icmp eq i32 %21, 187
  br i1 %22, label %23, label %36

23:                                               ; preds = %17
  %24 = load ptr, ptr %4, align 8
  %25 = getelementptr inbounds i8, ptr %24, i64 2
  %26 = load i8, ptr %25, align 1
  %27 = zext i8 %26 to i32
  %28 = icmp eq i32 %27, 191
  br i1 %28, label %29, label %36

29:                                               ; preds = %23
  %30 = load ptr, ptr %4, align 8
  %31 = getelementptr inbounds i8, ptr %30, i64 3
  %32 = load i64, ptr %5, align 8
  %33 = sub i64 %32, 3
  %34 = call noundef zeroext i1 @_Z10IsTextUtf8PKhm(ptr noundef %31, i64 noundef %33)
  br i1 %34, label %35, label %36

35:                                               ; preds = %29
  store i32 4, ptr %3, align 4
  br label %113

36:                                               ; preds = %29, %23, %17, %11, %2
  %37 = load i64, ptr %5, align 8
  %38 = icmp ugt i64 %37, 2
  br i1 %38, label %39, label %51

39:                                               ; preds = %36
  %40 = load ptr, ptr %4, align 8
  %41 = getelementptr inbounds i8, ptr %40, i64 0
  %42 = load i8, ptr %41, align 1
  %43 = zext i8 %42 to i32
  %44 = icmp eq i32 %43, 255
  br i1 %44, label %45, label %51

45:                                               ; preds = %39
  %46 = load ptr, ptr %4, align 8
  %47 = getelementptr inbounds i8, ptr %46, i64 1
  %48 = load i8, ptr %47, align 1
  %49 = zext i8 %48 to i32
  %50 = icmp eq i32 %49, 254
  br label %51

51:                                               ; preds = %45, %39, %36
  %52 = phi i1 [ false, %39 ], [ false, %36 ], [ %50, %45 ]
  %53 = zext i1 %52 to i8
  store i8 %53, ptr %6, align 1
  %54 = load i64, ptr %5, align 8
  %55 = icmp ugt i64 %54, 2
  br i1 %55, label %56, label %68

56:                                               ; preds = %51
  %57 = load ptr, ptr %4, align 8
  %58 = getelementptr inbounds i8, ptr %57, i64 0
  %59 = load i8, ptr %58, align 1
  %60 = zext i8 %59 to i32
  %61 = icmp eq i32 %60, 254
  br i1 %61, label %62, label %68

62:                                               ; preds = %56
  %63 = load ptr, ptr %4, align 8
  %64 = getelementptr inbounds i8, ptr %63, i64 1
  %65 = load i8, ptr %64, align 1
  %66 = zext i8 %65 to i32
  %67 = icmp eq i32 %66, 255
  br label %68

68:                                               ; preds = %62, %56, %51
  %69 = phi i1 [ false, %56 ], [ false, %51 ], [ %67, %62 ]
  %70 = zext i1 %69 to i8
  store i8 %70, ptr %7, align 1
  %71 = load i8, ptr %6, align 1
  %72 = trunc i8 %71 to i1
  br i1 %72, label %76, label %73

73:                                               ; preds = %68
  %74 = load i8, ptr %7, align 1
  %75 = trunc i8 %74 to i1
  br i1 %75, label %76, label %112

76:                                               ; preds = %73, %68
  %77 = load i8, ptr %6, align 1
  %78 = trunc i8 %77 to i1
  %79 = select i1 %78, i32 3, i32 2
  %80 = sext i32 %79 to i64
  store i64 %80, ptr %8, align 8
  br label %81

81:                                               ; preds = %108, %76
  %82 = load i64, ptr %8, align 8
  %83 = load i64, ptr %5, align 8
  %84 = icmp ult i64 %82, %83
  br i1 %84, label %85, label %111

85:                                               ; preds = %81
  %86 = load ptr, ptr %4, align 8
  %87 = load i64, ptr %8, align 8
  %88 = getelementptr inbounds i8, ptr %86, i64 %87
  %89 = load i8, ptr %88, align 1
  %90 = zext i8 %89 to i32
  %91 = icmp slt i32 %90, 32
  br i1 %91, label %92, label %107

92:                                               ; preds = %85
  %93 = load ptr, ptr %4, align 8
  %94 = load i64, ptr %8, align 8
  %95 = getelementptr inbounds i8, ptr %93, i64 %94
  %96 = load i8, ptr %95, align 1
  %97 = zext i8 %96 to i32
  %98 = icmp ne i32 %97, 13
  br i1 %98, label %99, label %107

99:                                               ; preds = %92
  %100 = load ptr, ptr %4, align 8
  %101 = load i64, ptr %8, align 8
  %102 = getelementptr inbounds i8, ptr %100, i64 %101
  %103 = load i8, ptr %102, align 1
  %104 = zext i8 %103 to i32
  %105 = icmp ne i32 %104, 10
  br i1 %105, label %106, label %107

106:                                              ; preds = %99
  store i32 3, ptr %3, align 4
  br label %113

107:                                              ; preds = %99, %92, %85
  br label %108

108:                                              ; preds = %107
  %109 = load i64, ptr %8, align 8
  %110 = add i64 %109, 2
  store i64 %110, ptr %8, align 8
  br label %81, !llvm.loop !11

111:                                              ; preds = %81
  br label %112

112:                                              ; preds = %111, %73
  store i32 0, ptr %3, align 4
  br label %113

113:                                              ; preds = %112, %106, %35
  %114 = load i32, ptr %3, align 4
  ret i32 %114
}