; Function Attrs: mustprogress uwtable
define noundef i32 @_Z18DetectTextEncodingPKhm(ptr noundef %0, i64 noundef %1) local_unnamed_addr #0 {
  %3 = icmp ugt i64 %1, 3
  br i1 %3, label %4, label %19

4:                                                ; preds = %2
  %5 = load i8, ptr %0, align 1
  %6 = icmp eq i8 %5, -17
  br i1 %6, label %7, label %.thread

7:                                                ; preds = %4
  %8 = getelementptr inbounds i8, ptr %0, i64 1
  %9 = load i8, ptr %8, align 1
  %10 = icmp eq i8 %9, -69
  br i1 %10, label %11, label %.threadthread-pre-split

11:                                               ; preds = %7
  %12 = getelementptr inbounds i8, ptr %0, i64 2
  %13 = load i8, ptr %12, align 1
  %14 = icmp eq i8 %13, -65
  br i1 %14, label %15, label %.threadthread-pre-split

15:                                               ; preds = %11
  %16 = getelementptr inbounds i8, ptr %0, i64 3
  %17 = add i64 %1, -3
  %18 = tail call noundef zeroext i1 @_Z10IsTextUtf8PKhm(ptr noundef nonnull %16, i64 noundef %17)
  br i1 %18, label %.thread38, label %.threadthread-pre-split

19:                                               ; preds = %2
  %20 = icmp eq i64 %1, 3
  br i1 %20, label %.threadthread-pre-split, label %.thread38

.threadthread-pre-split:                          ; preds = %19, %15, %11, %7
  %.pr = load i8, ptr %0, align 1
  br label %.thread

.thread:                                          ; preds = %.threadthread-pre-split, %4
  %21 = phi i8 [ %.pr, %.threadthread-pre-split ], [ %5, %4 ]
  switch i8 %21, label %.thread38 [
    i8 -1, label %22
    i8 -2, label %26
  ]

22:                                               ; preds = %.thread
  %23 = getelementptr inbounds i8, ptr %0, i64 1
  %24 = load i8, ptr %23, align 1
  %.fr = freeze i8 %24
  %25 = icmp eq i8 %.fr, -2
  br i1 %25, label %.preheader, label %.thread38

26:                                               ; preds = %.thread
  %27 = getelementptr inbounds i8, ptr %0, i64 1
  %28 = load i8, ptr %27, align 1
  %29 = icmp eq i8 %28, -1
  br i1 %29, label %.preheader, label %.thread38

.preheader:                                       ; preds = %22, %26
  %.0.ph = phi i64 [ 2, %26 ], [ 3, %22 ]
  %30 = icmp ult i64 %.0.ph, %1
  br i1 %30, label %.lr.ph, label %.thread38

.lr.ph:                                           ; preds = %.preheader, %34
  %.041 = phi i64 [ %35, %34 ], [ %.0.ph, %.preheader ]
  %31 = getelementptr inbounds i8, ptr %0, i64 %.041
  %32 = load i8, ptr %31, align 1
  %.fr40 = freeze i8 %32
  %33 = icmp ugt i8 %.fr40, 31
  br i1 %33, label %34, label %switch.early.test

switch.early.test:                                ; preds = %.lr.ph
  switch i8 %.fr40, label %.thread38 [
    i8 13, label %34
    i8 10, label %34
  ]

34:                                               ; preds = %switch.early.test, %switch.early.test, %.lr.ph
  %35 = add i64 %.041, 2
  %36 = icmp ult i64 %35, %1
  br i1 %36, label %.lr.ph, label %.thread38, !llvm.loop !4

.thread38:                                        ; preds = %34, %switch.early.test, %.thread, %22, %.preheader, %19, %26, %15
  %.024 = phi i32 [ 4, %15 ], [ 0, %26 ], [ 0, %19 ], [ 0, %.preheader ], [ 0, %22 ], [ 0, %.thread ], [ 0, %34 ], [ 3, %switch.early.test ]
  ret i32 %.024
}